; Function Attrs: mustprogress uwtable
define noundef nonnull align 8 dereferenceable(8) ptr @_ZN4baselsERSoNS_4TimeE(ptr noundef nonnull align 8 dereferenceable(8) %0, i64 %1) local_unnamed_addr #3 personality ptr @__gxx_personality_v0 {
  %3 = alloca %"class.base::Time", align 8
  %4 = alloca %"struct.base::Time::Exploded", align 4
  %5 = alloca %"class.std::__cxx11::basic_string", align 8
  store i64 %1, ptr %3, align 8
  call void @llvm.lifetime.start.p0(i64 32, ptr nonnull %4) #8
  call void @_ZNK4base4Time7ExplodeEbPNS0_8ExplodedE(ptr noundef nonnull align 8 dereferenceable(8) %3, i1 noundef zeroext false, ptr noundef nonnull %4)
  call void @llvm.lifetime.start.p0(i64 32, ptr nonnull %5) #8
  %6 = load i32, ptr %4, align 4, !tbaa !15
  %7 = getelementptr inbounds nuw i8, ptr %4, i64 4
  %8 = load i32, ptr %7, align 4, !tbaa !18
  %9 = getelementptr inbounds nuw i8, ptr %4, i64 12
  %10 = load i32, ptr %9, align 4, !tbaa !19
  %11 = getelementptr inbounds nuw i8, ptr %4, i64 16
  %12 = load i32, ptr %11, align 4, !tbaa !20
  %13 = getelementptr inbounds nuw i8, ptr %4, i64 20
  %14 = load i32, ptr %13, align 4, !tbaa !21
  %15 = getelementptr inbounds nuw i8, ptr %4, i64 24
  %16 = load i32, ptr %15, align 4, !tbaa !22
  %17 = getelementptr inbounds nuw i8, ptr %4, i64 28
  %18 = load i32, ptr %17, align 4, !tbaa !23
  call void (ptr, ptr, ...) @_ZN4base12StringPrintfB5cxx11EPKcz(ptr dead_on_unwind nonnull writable sret(%"class.std::__cxx11::basic_string") align 8 %5, ptr noundef nonnull @.str.1, i32 noundef %6, i32 noundef %8, i32 noundef %10, i32 noundef %12, i32 noundef %14, i32 noundef %16, i32 noundef %18)
  %19 = load ptr, ptr %5, align 8, !tbaa !24
  %20 = getelementptr inbounds nuw i8, ptr %5, i64 8
  %21 = load i64, ptr %20, align 8, !tbaa !29
  %22 = invoke noundef nonnull align 8 dereferenceable(8) ptr @_ZSt16__ostream_insertIcSt11char_traitsIcEERSt13basic_ostreamIT_T0_ES6_PKS3_l(ptr noundef nonnull align 8 dereferenceable(8) %0, ptr noundef %19, i64 noundef %21)
          to label %_ZStlsIcSt11char_traitsIcESaIcEERSt13basic_ostreamIT_T0_ES7_RKNSt7__cxx1112basic_stringIS4_S5_T1_EE.exit unwind label %28

_ZStlsIcSt11char_traitsIcESaIcEERSt13basic_ostreamIT_T0_ES7_RKNSt7__cxx1112basic_stringIS4_S5_T1_EE.exit: ; preds = %2
  %23 = load ptr, ptr %5, align 8, !tbaa !24
  %24 = getelementptr inbounds nuw i8, ptr %5, i64 16
  %25 = icmp eq ptr %23, %24
  br i1 %25, label %_ZNKSt7__cxx1112basic_stringIcSt11char_traitsIcESaIcEE11_M_is_localEv.exit.thread.i.i, label %_ZNKSt7__cxx1112basic_stringIcSt11char_traitsIcESaIcEE11_M_is_localEv.exit.i.i

_ZNKSt7__cxx1112basic_stringIcSt11char_traitsIcESaIcEE11_M_is_localEv.exit.thread.i.i: ; preds = %_ZStlsIcSt11char_traitsIcESaIcEERSt13basic_ostreamIT_T0_ES7_RKNSt7__cxx1112basic_stringIS4_S5_T1_EE.exit
  %26 = load i64, ptr %20, align 8, !tbaa !29
  %27 = icmp ult i64 %26, 16
  call void @llvm.assume(i1 %27)
  br label %_ZNSt7__cxx1112basic_stringIcSt11char_traitsIcESaIcEED2Ev.exit

_ZNKSt7__cxx1112basic_stringIcSt11char_traitsIcESaIcEE11_M_is_localEv.exit.i.i: ; preds = %_ZStlsIcSt11char_traitsIcESaIcEERSt13basic_ostreamIT_T0_ES7_RKNSt7__cxx1112basic_stringIS4_S5_T1_EE.exit
  call void @_ZdlPv(ptr noundef %23) #9
  br label %_ZNSt7__cxx1112basic_stringIcSt11char_traitsIcESaIcEED2Ev.exit

_ZNSt7__cxx1112basic_stringIcSt11char_traitsIcESaIcEED2Ev.exit: ; preds = %_ZNKSt7__cxx1112basic_stringIcSt11char_traitsIcESaIcEE11_M_is_localEv.exit.thread.i.i, %_ZNKSt7__cxx1112basic_stringIcSt11char_traitsIcESaIcEE11_M_is_localEv.exit.i.i
  call void @llvm.lifetime.end.p0(i64 32, ptr nonnull %5) #8
  call void @llvm.lifetime.end.p0(i64 32, ptr nonnull %4) #8
  ret ptr %22

28:                                               ; preds = %2
  %29 = landingpad { ptr, i32 }
          cleanup
  %30 = load ptr, ptr %5, align 8, !tbaa !24
  %31 = getelementptr inbounds nuw i8, ptr %5, i64 16
  %32 = icmp eq ptr %30, %31
  br i1 %32, label %_ZNKSt7__cxx1112basic_stringIcSt11char_traitsIcESaIcEE11_M_is_localEv.exit.thread.i.i3, label %_ZNKSt7__cxx1112basic_stringIcSt11char_traitsIcESaIcEE11_M_is_localEv.exit.i.i2

_ZNKSt7__cxx1112basic_stringIcSt11char_traitsIcESaIcEE11_M_is_localEv.exit.thread.i.i3: ; preds = %28
  %33 = load i64, ptr %20, align 8, !tbaa !29
  %34 = icmp ult i64 %33, 16
  call void @llvm.assume(i1 %34)
  br label %_ZNSt7__cxx1112basic_stringIcSt11char_traitsIcESaIcEED2Ev.exit4

_ZNKSt7__cxx1112basic_stringIcSt11char_traitsIcESaIcEE11_M_is_localEv.exit.i.i2: ; preds = %28
  call void @_ZdlPv(ptr noundef %30) #9
  br label %_ZNSt7__cxx1112basic_stringIcSt11char_traitsIcESaIcEED2Ev.exit4

_ZNSt7__cxx1112basic_stringIcSt11char_traitsIcESaIcEED2Ev.exit4: ; preds = %_ZNKSt7__cxx1112basic_stringIcSt11char_traitsIcESaIcEE11_M_is_localEv.exit.thread.i.i3, %_ZNKSt7__cxx1112basic_stringIcSt11char_traitsIcESaIcEE11_M_is_localEv.exit.i.i2
  call void @llvm.lifetime.end.p0(i64 32, ptr nonnull %5) #8
  call void @llvm.lifetime.end.p0(i64 32, ptr nonnull %4) #8
  resume { ptr, i32 } %29
}